; Function Attrs: mustprogress uwtable
define internal noundef i32 @_ZN4LuauL8deepCopyEP9lua_State(ptr noundef %0) #2 personality ptr @__gxx_personality_v0 {
  %2 = alloca %"class.Luau::Variant", align 8
  %3 = tail call noundef i32 @_Z10lua_gettopP9lua_State(ptr noundef %0)
  %.not = icmp eq i32 %3, 1
  br i1 %.not, label %5, label %4

4:                                                ; preds = %1
  tail call void (ptr, ptr, ...) @_Z11luaL_errorLP9lua_StatePKcz(ptr noundef %0, ptr noundef nonnull @.str.155, i32 noundef %3) #29
  unreachable

5:                                                ; preds = %1
  %6 = tail call noundef ptr @_Z20lua_touserdatataggedP9lua_Stateii(ptr noundef %0, i32 noundef 1, i32 noundef 42)
  %.not.not.i = icmp eq ptr %6, null
  br i1 %.not.not.i, label %7, label %_ZN4Luau15getTypeUserDataEP9lua_Statei.exit

7:                                                ; preds = %5
  tail call void @_Z15luaL_typeerrorLP9lua_StateiPKc(ptr noundef %0, i32 noundef 1, ptr noundef nonnull @.str.67) #29
  unreachable

_ZN4Luau15getTypeUserDataEP9lua_Statei.exit:      ; preds = %5
  %8 = load ptr, ptr %6, align 8, !tbaa !29
  %9 = tail call noundef ptr @_Z14lua_mainthreadP9lua_State(ptr noundef %0)
  %10 = tail call noundef ptr @_Z17lua_getthreaddataP9lua_State(ptr noundef %9)
  %11 = tail call noundef ptr @_ZN4Luau9deepCloneENS_7NotNullINS_19TypeFunctionRuntimeEEEPKNS_16TypeFunctionTypeE(ptr %10, ptr noundef %8)
  %12 = load i32, ptr %11, align 8, !tbaa !31
  store i32 %12, ptr %2, align 8, !tbaa !31
  %13 = sext i32 %12 to i64
  %14 = getelementptr inbounds [12 x ptr], ptr @_ZZN4Luau7VariantIJNS_25TypeFunctionPrimitiveTypeENS_19TypeFunctionAnyTypeENS_23TypeFunctionUnknownTypeENS_21TypeFunctionNeverTypeENS_25TypeFunctionSingletonTypeENS_21TypeFunctionUnionTypeENS_28TypeFunctionIntersectionTypeENS_24TypeFunctionNegationTypeENS_24TypeFunctionFunctionTypeENS_21TypeFunctionTableTypeENS_21TypeFunctionClassTypeENS_23TypeFunctionGenericTypeEEEC1ERKSD_E5table, i64 0, i64 %13
  %15 = load ptr, ptr %14, align 8, !tbaa !33
  %16 = getelementptr inbounds nuw i8, ptr %2, i64 8
  %17 = getelementptr inbounds nuw i8, ptr %11, i64 8
  call void %15(ptr noundef nonnull %16, ptr noundef nonnull %17)
  invoke void @_ZN4Luau17allocTypeUserDataEP9lua_StateNS_7VariantIJNS_25TypeFunctionPrimitiveTypeENS_19TypeFunctionAnyTypeENS_23TypeFunctionUnknownTypeENS_21TypeFunctionNeverTypeENS_25TypeFunctionSingletonTypeENS_21TypeFunctionUnionTypeENS_28TypeFunctionIntersectionTypeENS_24TypeFunctionNegationTypeENS_24TypeFunctionFunctionTypeENS_21TypeFunctionTableTypeENS_21TypeFunctionClassTypeENS_23TypeFunctionGenericTypeEEEE(ptr noundef %0, ptr noundef nonnull %2)
          to label %18 unwind label %26

18:                                               ; preds = %_ZN4Luau15getTypeUserDataEP9lua_Statei.exit
  %19 = load i32, ptr %2, align 8, !tbaa !31
  %20 = sext i32 %19 to i64
  %21 = getelementptr inbounds [12 x ptr], ptr @_ZN4Luau7VariantIJNS_25TypeFunctionPrimitiveTypeENS_19TypeFunctionAnyTypeENS_23TypeFunctionUnknownTypeENS_21TypeFunctionNeverTypeENS_25TypeFunctionSingletonTypeENS_21TypeFunctionUnionTypeENS_28TypeFunctionIntersectionTypeENS_24TypeFunctionNegationTypeENS_24TypeFunctionFunctionTypeENS_21TypeFunctionTableTypeENS_21TypeFunctionClassTypeENS_23TypeFunctionGenericTypeEEE9tableDtorE, i64 0, i64 %20
  %22 = load ptr, ptr %21, align 8, !tbaa !33
  invoke void %22(ptr noundef nonnull %16)
          to label %_ZN4Luau7VariantIJNS_25TypeFunctionPrimitiveTypeENS_19TypeFunctionAnyTypeENS_23TypeFunctionUnknownTypeENS_21TypeFunctionNeverTypeENS_25TypeFunctionSingletonTypeENS_21TypeFunctionUnionTypeENS_28TypeFunctionIntersectionTypeENS_24TypeFunctionNegationTypeENS_24TypeFunctionFunctionTypeENS_21TypeFunctionTableTypeENS_21TypeFunctionClassTypeENS_23TypeFunctionGenericTypeEEED2Ev.exit unwind label %23

23:                                               ; preds = %18
  %24 = landingpad { ptr, i32 }
          catch ptr null
  %25 = extractvalue { ptr, i32 } %24, 0
  call void @__clang_call_terminate(ptr %25) #28
  unreachable

_ZN4Luau7VariantIJNS_25TypeFunctionPrimitiveTypeENS_19TypeFunctionAnyTypeENS_23TypeFunctionUnknownTypeENS_21TypeFunctionNeverTypeENS_25TypeFunctionSingletonTypeENS_21TypeFunctionUnionTypeENS_28TypeFunctionIntersectionTypeENS_24TypeFunctionNegationTypeENS_24TypeFunctionFunctionTypeENS_21TypeFunctionTableTypeENS_21TypeFunctionClassTypeENS_23TypeFunctionGenericTypeEEED2Ev.exit: ; preds = %18
  ret i32 1

26:                                               ; preds = %_ZN4Luau15getTypeUserDataEP9lua_Statei.exit
  %27 = landingpad { ptr, i32 }
          cleanup
  %28 = load i32, ptr %2, align 8, !tbaa !31
  %29 = sext i32 %28 to i64
  %30 = getelementptr inbounds [12 x ptr], ptr @_ZN4Luau7VariantIJNS_25TypeFunctionPrimitiveTypeENS_19TypeFunctionAnyTypeENS_23TypeFunctionUnknownTypeENS_21TypeFunctionNeverTypeENS_25TypeFunctionSingletonTypeENS_21TypeFunctionUnionTypeENS_28TypeFunctionIntersectionTypeENS_24TypeFunctionNegationTypeENS_24TypeFunctionFunctionTypeENS_21TypeFunctionTableTypeENS_21TypeFunctionClassTypeENS_23TypeFunctionGenericTypeEEE9tableDtorE, i64 0, i64 %29
  %31 = load ptr, ptr %30, align 8, !tbaa !33
  invoke void %31(ptr noundef nonnull %16)
          to label %_ZN4Luau7VariantIJNS_25TypeFunctionPrimitiveTypeENS_19TypeFunctionAnyTypeENS_23TypeFunctionUnknownTypeENS_21TypeFunctionNeverTypeENS_25TypeFunctionSingletonTypeENS_21TypeFunctionUnionTypeENS_28TypeFunctionIntersectionTypeENS_24TypeFunctionNegationTypeENS_24TypeFunctionFunctionTypeENS_21TypeFunctionTableTypeENS_21TypeFunctionClassTypeENS_23TypeFunctionGenericTypeEEED2Ev.exit10 unwind label %32

32:                                               ; preds = %26
  %33 = landingpad { ptr, i32 }
          catch ptr null
  %34 = extractvalue { ptr, i32 } %33, 0
  call void @__clang_call_terminate(ptr %34) #28
  unreachable

_ZN4Luau7VariantIJNS_25TypeFunctionPrimitiveTypeENS_19TypeFunctionAnyTypeENS_23TypeFunctionUnknownTypeENS_21TypeFunctionNeverTypeENS_25TypeFunctionSingletonTypeENS_21TypeFunctionUnionTypeENS_28TypeFunctionIntersectionTypeENS_24TypeFunctionNegationTypeENS_24TypeFunctionFunctionTypeENS_21TypeFunctionTableTypeENS_21TypeFunctionClassTypeENS_23TypeFunctionGenericTypeEEED2Ev.exit10: ; preds = %26
  resume { ptr, i32 } %27
}